target datalayout = "e-m:e-p270:32:32-p271:32:32-p272:64:64-i64:64-i128:128-f80:128-n8:16:32:64-S128"
target triple = "x86_64-pc-linux-gnu"

%struct.AllocSetContext = type { %struct.MemoryContextData, ptr, [11 x ptr], i32, i32, i32, i32, i32 }
%struct.MemoryContextData = type { i32, i8, i8, i64, ptr, ptr, ptr, ptr, ptr, ptr, ptr, ptr }
%struct.AllocBlockData = type { ptr, ptr, ptr, ptr, ptr }
%struct.AllocFreeListLink = type { ptr }
%struct.MemoryContextCounters = type { i64, i64, i64, i64 }

@.str.4 = private unnamed_addr constant [57 x i8] c"%zu total in %zu blocks; %zu free (%zu chunks); %zu used\00", align 1

; Function Attrs: nounwind uwtable
define dso_local void @AllocSetStats(ptr noundef %0, ptr noundef %1, ptr noundef %2, ptr noundef %3, i1 noundef zeroext %4) #0 {
  %6 = alloca ptr, align 8
  %7 = alloca ptr, align 8
  %8 = alloca ptr, align 8
  %9 = alloca ptr, align 8
  %10 = alloca i8, align 1
  %11 = alloca ptr, align 8
  %12 = alloca i64, align 8
  %13 = alloca i64, align 8
  %14 = alloca i64, align 8
  %15 = alloca i64, align 8
  %16 = alloca ptr, align 8
  %17 = alloca i32, align 4
  %18 = alloca i64, align 8
  %19 = alloca ptr, align 8
  %20 = alloca ptr, align 8
  %21 = alloca [200 x i8], align 16
  store ptr %0, ptr %6, align 8
  store ptr %1, ptr %7, align 8
  store ptr %2, ptr %8, align 8
  store ptr %3, ptr %9, align 8
  %22 = zext i1 %4 to i8
  store i8 %22, ptr %10, align 1
  call void @llvm.lifetime.start.p0(i64 8, ptr %11) #14
  %23 = load ptr, ptr %6, align 8
  store ptr %23, ptr %11, align 8
  call void @llvm.lifetime.start.p0(i64 8, ptr %12) #14
  store i64 0, ptr %12, align 8
  call void @llvm.lifetime.start.p0(i64 8, ptr %13) #14
  store i64 0, ptr %13, align 8
  call void @llvm.lifetime.start.p0(i64 8, ptr %14) #14
  call void @llvm.lifetime.start.p0(i64 8, ptr %15) #14
  store i64 0, ptr %15, align 8
  call void @llvm.lifetime.start.p0(i64 8, ptr %16) #14
  call void @llvm.lifetime.start.p0(i64 4, ptr %17) #14
  store i64 200, ptr %14, align 8
  %24 = load ptr, ptr %11, align 8
  %25 = getelementptr inbounds nuw %struct.AllocSetContext, ptr %24, i32 0, i32 1
  %26 = load ptr, ptr %25, align 8
  store ptr %26, ptr %16, align 8
  br label %27

27:                                               ; preds = %53, %5
  %28 = load ptr, ptr %16, align 8
  %29 = icmp ne ptr %28, null
  br i1 %29, label %30, label %57

30:                                               ; preds = %27
  %31 = load i64, ptr %12, align 8
  %32 = add i64 %31, 1
  store i64 %32, ptr %12, align 8
  %33 = load ptr, ptr %16, align 8
  %34 = getelementptr inbounds nuw %struct.AllocBlockData, ptr %33, i32 0, i32 4
  %35 = load ptr, ptr %34, align 8
  %36 = load ptr, ptr %16, align 8
  %37 = ptrtoint ptr %35 to i64
  %38 = ptrtoint ptr %36 to i64
  %39 = sub i64 %37, %38
  %40 = load i64, ptr %14, align 8
  %41 = add i64 %40, %39
  store i64 %41, ptr %14, align 8
  %42 = load ptr, ptr %16, align 8
  %43 = getelementptr inbounds nuw %struct.AllocBlockData, ptr %42, i32 0, i32 4
  %44 = load ptr, ptr %43, align 8
  %45 = load ptr, ptr %16, align 8
  %46 = getelementptr inbounds nuw %struct.AllocBlockData, ptr %45, i32 0, i32 3
  %47 = load ptr, ptr %46, align 8
  %48 = ptrtoint ptr %44 to i64
  %49 = ptrtoint ptr %47 to i64
  %50 = sub i64 %48, %49
  %51 = load i64, ptr %15, align 8
  %52 = add i64 %51, %50
  store i64 %52, ptr %15, align 8
  br label %53

53:                                               ; preds = %30
  %54 = load ptr, ptr %16, align 8
  %55 = getelementptr inbounds nuw %struct.AllocBlockData, ptr %54, i32 0, i32 2
  %56 = load ptr, ptr %55, align 8
  store ptr %56, ptr %16, align 8
  br label %27, !llvm.loop !16

57:                                               ; preds = %27
  store i32 0, ptr %17, align 4
  br label %58

58:                                               ; preds = %99, %57
  %59 = load i32, ptr %17, align 4
  %60 = icmp slt i32 %59, 11
  br i1 %60, label %61, label %102

61:                                               ; preds = %58
  call void @llvm.lifetime.start.p0(i64 8, ptr %18) #14
  %62 = load i32, ptr %17, align 4
  %63 = zext i32 %62 to i64
  %64 = shl i64 8, %63
  store i64 %64, ptr %18, align 8
  call void @llvm.lifetime.start.p0(i64 8, ptr %19) #14
  %65 = load ptr, ptr %11, align 8
  %66 = getelementptr inbounds nuw %struct.AllocSetContext, ptr %65, i32 0, i32 2
  %67 = load i32, ptr %17, align 4
  %68 = sext i32 %67 to i64
  %69 = getelementptr inbounds [11 x ptr], ptr %66, i64 0, i64 %68
  %70 = load ptr, ptr %69, align 8
  store ptr %70, ptr %19, align 8
  br label %71

71:                                               ; preds = %97, %61
  %72 = load ptr, ptr %19, align 8
  %73 = icmp ne ptr %72, null
  br i1 %73, label %74, label %98

74:                                               ; preds = %71
  call void @llvm.lifetime.start.p0(i64 8, ptr %20) #14
  %75 = load ptr, ptr %19, align 8
  %76 = getelementptr inbounds nuw i8, ptr %75, i64 8
  store ptr %76, ptr %20, align 8
  br label %77

77:                                               ; preds = %74
  br label %78

78:                                               ; preds = %77
  br label %79

79:                                               ; preds = %78
  br label %80

80:                                               ; preds = %79
  br label %81

81:                                               ; preds = %80
  br label %82

82:                                               ; preds = %81
  %83 = load i64, ptr %13, align 8
  %84 = add i64 %83, 1
  store i64 %84, ptr %13, align 8
  %85 = load i64, ptr %18, align 8
  %86 = add i64 %85, 8
  %87 = load i64, ptr %15, align 8
  %88 = add i64 %87, %86
  store i64 %88, ptr %15, align 8
  br label %89

89:                                               ; preds = %82
  br label %90

90:                                               ; preds = %89
  br label %91

91:                                               ; preds = %90
  %92 = load ptr, ptr %20, align 8
  %93 = getelementptr inbounds nuw %struct.AllocFreeListLink, ptr %92, i32 0, i32 0
  %94 = load ptr, ptr %93, align 8
  store ptr %94, ptr %19, align 8
  br label %95

95:                                               ; preds = %91
  br label %96

96:                                               ; preds = %95
  br label %97

97:                                               ; preds = %96
  call void @llvm.lifetime.end.p0(i64 8, ptr %20) #14
  br label %71, !llvm.loop !17

98:                                               ; preds = %71
  call void @llvm.lifetime.end.p0(i64 8, ptr %19) #14
  call void @llvm.lifetime.end.p0(i64 8, ptr %18) #14
  br label %99

99:                                               ; preds = %98
  %100 = load i32, ptr %17, align 4
  %101 = add i32 %100, 1
  store i32 %101, ptr %17, align 4
  br label %58, !llvm.loop !18

102:                                              ; preds = %58
  %103 = load ptr, ptr %7, align 8
  %104 = icmp ne ptr %103, null
  br i1 %104, label %105, label %121

105:                                              ; preds = %102
  call void @llvm.lifetime.start.p0(i64 200, ptr %21) #14
  %106 = getelementptr inbounds [200 x i8], ptr %21, i64 0, i64 0
  %107 = load i64, ptr %14, align 8
  %108 = load i64, ptr %12, align 8
  %109 = load i64, ptr %15, align 8
  %110 = load i64, ptr %13, align 8
  %111 = load i64, ptr %14, align 8
  %112 = load i64, ptr %15, align 8
  %113 = sub i64 %111, %112
  %114 = call i32 (ptr, i64, ptr, ...) @pg_snprintf(ptr noundef %106, i64 noundef 200, ptr noundef @.str.4, i64 noundef %107, i64 noundef %108, i64 noundef %109, i64 noundef %110, i64 noundef %113)
  %115 = load ptr, ptr %7, align 8
  %116 = load ptr, ptr %6, align 8
  %117 = load ptr, ptr %8, align 8
  %118 = getelementptr inbounds [200 x i8], ptr %21, i64 0, i64 0
  %119 = load i8, ptr %10, align 1, !range !9, !noundef !10
  %120 = trunc i8 %119 to i1
  call void %115(ptr noundef %116, ptr noundef %117, ptr noundef %118, i1 noundef zeroext %120)
  call void @llvm.lifetime.end.p0(i64 200, ptr %21) #14
  br label %121

121:                                              ; preds = %105, %102
  %122 = load ptr, ptr %9, align 8
  %123 = icmp ne ptr %122, null
  br i1 %123, label %124, label %145

124:                                              ; preds = %121
  %125 = load i64, ptr %12, align 8
  %126 = load ptr, ptr %9, align 8
  %127 = getelementptr inbounds nuw %struct.MemoryContextCounters, ptr %126, i32 0, i32 0
  %128 = load i64, ptr %127, align 8
  %129 = add i64 %128, %125
  store i64 %129, ptr %127, align 8
  %130 = load i64, ptr %13, align 8
  %131 = load ptr, ptr %9, align 8
  %132 = getelementptr inbounds nuw %struct.MemoryContextCounters, ptr %131, i32 0, i32 1
  %133 = load i64, ptr %132, align 8
  %134 = add i64 %133, %130
  store i64 %134, ptr %132, align 8
  %135 = load i64, ptr %14, align 8
  %136 = load ptr, ptr %9, align 8
  %137 = getelementptr inbounds nuw %struct.MemoryContextCounters, ptr %136, i32 0, i32 2
  %138 = load i64, ptr %137, align 8
  %139 = add i64 %138, %135
  store i64 %139, ptr %137, align 8
  %140 = load i64, ptr %15, align 8
  %141 = load ptr, ptr %9, align 8
  %142 = getelementptr inbounds nuw %struct.MemoryContextCounters, ptr %141, i32 0, i32 3
  %143 = load i64, ptr %142, align 8
  %144 = add i64 %143, %140
  store i64 %144, ptr %142, align 8
  br label %145

145:                                              ; preds = %124, %121
  call void @llvm.lifetime.end.p0(i64 4, ptr %17) #14
  call void @llvm.lifetime.end.p0(i64 8, ptr %16) #14
  call void @llvm.lifetime.end.p0(i64 8, ptr %15) #14
  call void @llvm.lifetime.end.p0(i64 8, ptr %14) #14
  call void @llvm.lifetime.end.p0(i64 8, ptr %13) #14
  call void @llvm.lifetime.end.p0(i64 8, ptr %12) #14
  call void @llvm.lifetime.end.p0(i64 8, ptr %11) #14
  ret void
}