; Function Attrs: nounwind uwtable
define dso_local void @AllocSetStats(ptr noundef %0, ptr noundef readonly captures(address_is_null) %1, ptr noundef %2, ptr noundef captures(address_is_null) %3, i1 noundef zeroext %4) local_unnamed_addr #0 {
  %6 = alloca [200 x i8], align 16
  %7 = getelementptr inbounds nuw i8, ptr %0, i64 80
  %.04454 = load ptr, ptr %7, align 8
  %.not55 = icmp eq ptr %.04454, null
  br i1 %.not55, label %.preheader, label %.lr.ph

.preheader:                                       ; preds = %.lr.ph, %5
  %.047.lcssa = phi i64 [ 200, %5 ], [ %15, %.lr.ph ]
  %.045.lcssa = phi i64 [ 0, %5 ], [ %20, %.lr.ph ]
  %.0.lcssa = phi i64 [ 0, %5 ], [ %9, %.lr.ph ]
  %8 = getelementptr inbounds nuw i8, ptr %0, i64 88
  br label %22

.lr.ph:                                           ; preds = %5, %.lr.ph
  %.04459 = phi ptr [ %.044, %.lr.ph ], [ %.04454, %5 ]
  %.058 = phi i64 [ %9, %.lr.ph ], [ 0, %5 ]
  %.04557 = phi i64 [ %20, %.lr.ph ], [ 0, %5 ]
  %.04756 = phi i64 [ %15, %.lr.ph ], [ 200, %5 ]
  %9 = add i64 %.058, 1
  %10 = getelementptr inbounds nuw i8, ptr %.04459, i64 32
  %11 = load ptr, ptr %10, align 8
  %12 = ptrtoint ptr %11 to i64
  %13 = ptrtoint ptr %.04459 to i64
  %14 = sub i64 %.04756, %13
  %15 = add i64 %14, %12
  %16 = getelementptr inbounds nuw i8, ptr %.04459, i64 24
  %17 = load ptr, ptr %16, align 8
  %18 = ptrtoint ptr %17 to i64
  %19 = add i64 %.04557, %12
  %20 = sub i64 %19, %18
  %21 = getelementptr inbounds nuw i8, ptr %.04459, i64 16
  %.044 = load ptr, ptr %21, align 8
  %.not = icmp eq ptr %.044, null
  br i1 %.not, label %.preheader, label %.lr.ph, !llvm.loop !15

22:                                               ; preds = %.preheader, %._crit_edge
  %indvars.iv = phi i64 [ 0, %.preheader ], [ %indvars.iv.next, %._crit_edge ]
  %.04272 = phi i64 [ 0, %.preheader ], [ %.1.lcssa, %._crit_edge ]
  %.14670 = phi i64 [ %.045.lcssa, %.preheader ], [ %.2.lcssa, %._crit_edge ]
  %23 = getelementptr inbounds nuw [11 x ptr], ptr %8, i64 0, i64 %indvars.iv
  %.04162 = load ptr, ptr %23, align 8
  %.not5263 = icmp eq ptr %.04162, null
  br i1 %.not5263, label %._crit_edge, label %.lr.ph67

.lr.ph67:                                         ; preds = %22
  %24 = shl nuw nsw i64 8, %indvars.iv
  %25 = add nuw nsw i64 %24, 8
  br label %26

26:                                               ; preds = %.lr.ph67, %26
  %.04166 = phi ptr [ %.04162, %.lr.ph67 ], [ %.041, %26 ]
  %.165 = phi i64 [ %.04272, %.lr.ph67 ], [ %28, %26 ]
  %.264 = phi i64 [ %.14670, %.lr.ph67 ], [ %29, %26 ]
  %27 = getelementptr inbounds nuw i8, ptr %.04166, i64 8
  %28 = add i64 %.165, 1
  %29 = add i64 %25, %.264
  %.041 = load ptr, ptr %27, align 8
  %.not52 = icmp eq ptr %.041, null
  br i1 %.not52, label %._crit_edge, label %26, !llvm.loop !16

._crit_edge:                                      ; preds = %26, %22
  %.2.lcssa = phi i64 [ %.14670, %22 ], [ %29, %26 ]
  %.1.lcssa = phi i64 [ %.04272, %22 ], [ %28, %26 ]
  %indvars.iv.next = add nuw nsw i64 %indvars.iv, 1
  %exitcond.not = icmp eq i64 %indvars.iv.next, 11
  br i1 %exitcond.not, label %30, label %22, !llvm.loop !17

30:                                               ; preds = %._crit_edge
  %.not50 = icmp eq ptr %1, null
  br i1 %.not50, label %34, label %31

31:                                               ; preds = %30
  call void @llvm.lifetime.start.p0(i64 200, ptr nonnull %6) #15
  %32 = sub i64 %.047.lcssa, %.2.lcssa
  %33 = call i32 (ptr, i64, ptr, ...) @pg_snprintf(ptr noundef nonnull %6, i64 noundef 200, ptr noundef nonnull @.str.4, i64 noundef %.047.lcssa, i64 noundef %.0.lcssa, i64 noundef %.2.lcssa, i64 noundef %.1.lcssa, i64 noundef %32) #15
  call void %1(ptr noundef %0, ptr noundef %2, ptr noundef nonnull %6, i1 noundef zeroext %4) #15
  call void @llvm.lifetime.end.p0(i64 200, ptr nonnull %6) #15
  br label %34

34:                                               ; preds = %31, %30
  %.not51 = icmp eq ptr %3, null
  br i1 %.not51, label %47, label %35

35:                                               ; preds = %34
  %36 = load i64, ptr %3, align 8
  %37 = add i64 %36, %.0.lcssa
  store i64 %37, ptr %3, align 8
  %38 = getelementptr inbounds nuw i8, ptr %3, i64 8
  %39 = load i64, ptr %38, align 8
  %40 = add i64 %39, %.1.lcssa
  store i64 %40, ptr %38, align 8
  %41 = getelementptr inbounds nuw i8, ptr %3, i64 16
  %42 = load i64, ptr %41, align 8
  %43 = add i64 %42, %.047.lcssa
  store i64 %43, ptr %41, align 8
  %44 = getelementptr inbounds nuw i8, ptr %3, i64 24
  %45 = load i64, ptr %44, align 8
  %46 = add i64 %45, %.2.lcssa
  store i64 %46, ptr %44, align 8
  br label %47

47:                                               ; preds = %35, %34
  ret void
}